target datalayout = "e-m:e-p270:32:32-p271:32:32-p272:64:64-i64:64-i128:128-f80:128-n8:16:32:64-S128"
target triple = "x86_64-pc-linux-gnu"

%class.EllipticKeyPoint = type { %"class.cv::Point_", %"class.cv::Scalar_", %"class.cv::Size_", %"class.cv::Size_" }
%"class.cv::Point_" = type { float, float }
%"class.cv::Scalar_" = type { %"class.cv::Vec" }
%"class.cv::Vec" = type { %"class.cv::Matx" }
%"class.cv::Matx" = type { [4 x double] }
%"class.cv::Size_" = type { float, float }

; Function Attrs: mustprogress nounwind uwtable
define linkonce_odr hidden void @_ZN2cv4MatxIdLi4ELi1EEC2Ev(ptr noundef nonnull align 8 dereferenceable(32) %0) unnamed_addr #1 comdat align 2 {
  %2 = alloca ptr, align 8
  %3 = alloca i32, align 4
  store ptr %0, ptr %2, align 8
  %4 = load ptr, ptr %2, align 8
  store i32 0, ptr %3, align 4
  br label %5

5:                                                ; preds = %13, %1
  %6 = load i32, ptr %3, align 4
  %7 = icmp slt i32 %6, 4
  br i1 %7, label %8, label %16

8:                                                ; preds = %5
  %9 = getelementptr inbounds %"class.cv::Matx", ptr %4, i32 0, i32 0
  %10 = load i32, ptr %3, align 4
  %11 = sext i32 %10 to i64
  %12 = getelementptr inbounds [4 x double], ptr %9, i64 0, i64 %11
  store double 0.000000e+00, ptr %12, align 8
  br label %13

13:                                               ; preds = %8
  %14 = load i32, ptr %3, align 4
  %15 = add nsw i32 %14, 1
  store i32 %15, ptr %3, align 4
  br label %5, !llvm.loop !18

16:                                               ; preds = %5
  ret void
}

; Function Attrs: mustprogress nounwind uwtable
define linkonce_odr void @_ZSt4swapIdENSt9enable_ifIXsr6__and_ISt6__not_ISt15__is_tuple_likeIT_EESt21is_move_constructibleIS3_ESt18is_move_assignableIS3_EEE5valueEvE4typeERS3_SC_(ptr noundef nonnull align 8 dereferenceable(8) %0, ptr noundef nonnull align 8 dereferenceable(8) %1) #1 comdat {
  %3 = alloca ptr, align 8
  %4 = alloca ptr, align 8
  %5 = alloca double, align 8
  store ptr %0, ptr %3, align 8
  store ptr %1, ptr %4, align 8
  %6 = load ptr, ptr %3, align 8
  %7 = load double, ptr %6, align 8
  store double %7, ptr %5, align 8
  %8 = load ptr, ptr %4, align 8
  %9 = load double, ptr %8, align 8
  %10 = load ptr, ptr %3, align 8
  store double %9, ptr %10, align 8
  %11 = load double, ptr %5, align 8
  %12 = load ptr, ptr %4, align 8
  store double %11, ptr %12, align 8
  ret void
}

; Function Attrs: mustprogress uwtable
define linkonce_odr hidden void @_ZN2cv3VecIdLi4EEC2Ev(ptr noundef nonnull align 8 dereferenceable(32) %0) unnamed_addr #0 comdat align 2 {
  %2 = alloca ptr, align 8
  store ptr %0, ptr %2, align 8
  %3 = load ptr, ptr %2, align 8
  call void @_ZN2cv4MatxIdLi4ELi1EEC2Ev(ptr noundef nonnull align 8 dereferenceable(32) %3)
  ret void
}

; Function Attrs: mustprogress nounwind uwtable
define internal noundef i32 @_ZL14solveQuadraticIdEiT_S0_S0_RS0_S1_(double noundef %0, double noundef %1, double noundef %2, ptr noundef nonnull align 8 dereferenceable(8) %3, ptr noundef nonnull align 8 dereferenceable(8) %4) #1 {
  %6 = alloca i32, align 4
  %7 = alloca double, align 8
  %8 = alloca double, align 8
  %9 = alloca double, align 8
  %10 = alloca ptr, align 8
  %11 = alloca ptr, align 8
  %12 = alloca double, align 8
  %13 = alloca double, align 8
  store double %0, ptr %7, align 8
  store double %1, ptr %8, align 8
  store double %2, ptr %9, align 8
  store ptr %3, ptr %10, align 8
  store ptr %4, ptr %11, align 8
  %14 = load double, ptr %7, align 8
  %15 = fcmp oeq double %14, 0.000000e+00
  br i1 %15, label %16, label %32

16:                                               ; preds = %5
  %17 = load double, ptr %8, align 8
  %18 = fcmp oeq double %17, 0.000000e+00
  br i1 %18, label %19, label %25

19:                                               ; preds = %16
  %20 = load ptr, ptr %11, align 8
  store double 0.000000e+00, ptr %20, align 8
  %21 = load ptr, ptr %10, align 8
  store double 0.000000e+00, ptr %21, align 8
  %22 = load double, ptr %9, align 8
  %23 = fcmp oeq double %22, 0.000000e+00
  %24 = zext i1 %23 to i32
  store i32 %24, ptr %6, align 4
  br label %86

25:                                               ; preds = %16
  %26 = load double, ptr %9, align 8
  %27 = fneg double %26
  %28 = load double, ptr %8, align 8
  %29 = fdiv double %27, %28
  %30 = load ptr, ptr %11, align 8
  store double %29, ptr %30, align 8
  %31 = load ptr, ptr %10, align 8
  store double %29, ptr %31, align 8
  store i32 1, ptr %6, align 4
  br label %86

32:                                               ; preds = %5
  %33 = load double, ptr %8, align 8
  %34 = load double, ptr %8, align 8
  %35 = load double, ptr %7, align 8
  %36 = fmul double 4.000000e+00, %35
  %37 = load double, ptr %9, align 8
  %38 = fmul double %36, %37
  %39 = fneg double %38
  %40 = call double @llvm.fmuladd.f64(double %33, double %34, double %39)
  store double %40, ptr %12, align 8
  %41 = load double, ptr %12, align 8
  %42 = fcmp olt double %41, 0.000000e+00
  br i1 %42, label %43, label %46

43:                                               ; preds = %32
  %44 = load ptr, ptr %11, align 8
  store double 0.000000e+00, ptr %44, align 8
  %45 = load ptr, ptr %10, align 8
  store double 0.000000e+00, ptr %45, align 8
  store i32 0, ptr %6, align 4
  br label %86

46:                                               ; preds = %32
  %47 = load double, ptr %12, align 8
  %48 = fcmp ogt double %47, 0.000000e+00
  br i1 %48, label %49, label %78

49:                                               ; preds = %46
  %50 = load double, ptr %12, align 8
  %51 = call double @sqrt(double noundef %50) #16
  store double %51, ptr %12, align 8
  %52 = load double, ptr %7, align 8
  %53 = fmul double 2.000000e+00, %52
  %54 = fdiv double 1.000000e+00, %53
  store double %54, ptr %13, align 8
  %55 = load double, ptr %8, align 8
  %56 = fneg double %55
  %57 = load double, ptr %12, align 8
  %58 = fsub double %56, %57
  %59 = load double, ptr %13, align 8
  %60 = fmul double %58, %59
  %61 = load ptr, ptr %10, align 8
  store double %60, ptr %61, align 8
  %62 = load double, ptr %8, align 8
  %63 = fneg double %62
  %64 = load double, ptr %12, align 8
  %65 = fadd double %63, %64
  %66 = load double, ptr %13, align 8
  %67 = fmul double %65, %66
  %68 = load ptr, ptr %11, align 8
  store double %67, ptr %68, align 8
  %69 = load ptr, ptr %10, align 8
  %70 = load double, ptr %69, align 8
  %71 = load ptr, ptr %11, align 8
  %72 = load double, ptr %71, align 8
  %73 = fcmp ogt double %70, %72
  br i1 %73, label %74, label %77

74:                                               ; preds = %49
  %75 = load ptr, ptr %10, align 8
  %76 = load ptr, ptr %11, align 8
  call void @_ZSt4swapIdENSt9enable_ifIXsr6__and_ISt6__not_ISt15__is_tuple_likeIT_EESt21is_move_constructibleIS3_ESt18is_move_assignableIS3_EEE5valueEvE4typeERS3_SC_(ptr noundef nonnull align 8 dereferenceable(8) %75, ptr noundef nonnull align 8 dereferenceable(8) %76) #16
  br label %77

77:                                               ; preds = %74, %49
  store i32 2, ptr %6, align 4
  br label %86

78:                                               ; preds = %46
  %79 = load double, ptr %8, align 8
  %80 = fneg double %79
  %81 = load double, ptr %7, align 8
  %82 = fmul double 2.000000e+00, %81
  %83 = fdiv double %80, %82
  %84 = load ptr, ptr %11, align 8
  store double %83, ptr %84, align 8
  %85 = load ptr, ptr %10, align 8
  store double %83, ptr %85, align 8
  store i32 1, ptr %6, align 4
  br label %86

86:                                               ; preds = %78, %77, %43, %25, %19
  %87 = load i32, ptr %6, align 4
  ret i32 %87
}

; Function Attrs: mustprogress nounwind uwtable
define linkonce_odr hidden noundef nonnull align 8 dereferenceable(8) ptr @_ZN2cv3VecIdLi4EEixEi(ptr noundef nonnull align 8 dereferenceable(32) %0, i32 noundef %1) #1 comdat align 2 {
  %3 = alloca ptr, align 8
  %4 = alloca i32, align 4
  store ptr %0, ptr %3, align 8
  store i32 %1, ptr %4, align 4
  %5 = load ptr, ptr %3, align 8
  %6 = getelementptr inbounds %"class.cv::Matx", ptr %5, i32 0, i32 0
  %7 = load i32, ptr %4, align 4
  %8 = sext i32 %7 to i64
  %9 = getelementptr inbounds [4 x double], ptr %6, i64 0, i64 %8
  ret ptr %9
}

; Function Attrs: mustprogress nounwind uwtable
define linkonce_odr hidden noundef nonnull align 8 dereferenceable(32) ptr @_ZN2cv7Scalar_IdEaSERKS1_(ptr noundef nonnull align 8 dereferenceable(32) %0, ptr noundef nonnull align 8 dereferenceable(32) %1) #1 comdat align 2 {
  %3 = alloca ptr, align 8
  %4 = alloca ptr, align 8
  store ptr %0, ptr %3, align 8
  store ptr %1, ptr %4, align 8
  %5 = load ptr, ptr %3, align 8
  %6 = load ptr, ptr %4, align 8
  %7 = getelementptr inbounds %"class.cv::Matx", ptr %6, i32 0, i32 0
  %8 = getelementptr inbounds [4 x double], ptr %7, i64 0, i64 0
  %9 = load double, ptr %8, align 8
  %10 = getelementptr inbounds %"class.cv::Matx", ptr %5, i32 0, i32 0
  %11 = getelementptr inbounds [4 x double], ptr %10, i64 0, i64 0
  store double %9, ptr %11, align 8
  %12 = load ptr, ptr %4, align 8
  %13 = getelementptr inbounds %"class.cv::Matx", ptr %12, i32 0, i32 0
  %14 = getelementptr inbounds [4 x double], ptr %13, i64 0, i64 1
  %15 = load double, ptr %14, align 8
  %16 = getelementptr inbounds %"class.cv::Matx", ptr %5, i32 0, i32 0
  %17 = getelementptr inbounds [4 x double], ptr %16, i64 0, i64 1
  store double %15, ptr %17, align 8
  %18 = load ptr, ptr %4, align 8
  %19 = getelementptr inbounds %"class.cv::Matx", ptr %18, i32 0, i32 0
  %20 = getelementptr inbounds [4 x double], ptr %19, i64 0, i64 2
  %21 = load double, ptr %20, align 8
  %22 = getelementptr inbounds %"class.cv::Matx", ptr %5, i32 0, i32 0
  %23 = getelementptr inbounds [4 x double], ptr %22, i64 0, i64 2
  store double %21, ptr %23, align 8
  %24 = load ptr, ptr %4, align 8
  %25 = getelementptr inbounds %"class.cv::Matx", ptr %24, i32 0, i32 0
  %26 = getelementptr inbounds [4 x double], ptr %25, i64 0, i64 3
  %27 = load double, ptr %26, align 8
  %28 = getelementptr inbounds %"class.cv::Matx", ptr %5, i32 0, i32 0
  %29 = getelementptr inbounds [4 x double], ptr %28, i64 0, i64 3
  store double %27, ptr %29, align 8
  ret ptr %5
}

; Function Attrs: mustprogress nounwind uwtable
define linkonce_odr hidden void @_ZN2cv5Size_IfEC2Ev(ptr noundef nonnull align 4 dereferenceable(8) %0) unnamed_addr #1 comdat align 2 {
  %2 = alloca ptr, align 8
  store ptr %0, ptr %2, align 8
  %3 = load ptr, ptr %2, align 8
  %4 = getelementptr inbounds %"class.cv::Size_", ptr %3, i32 0, i32 0
  store float 0.000000e+00, ptr %4, align 4
  %5 = getelementptr inbounds %"class.cv::Size_", ptr %3, i32 0, i32 1
  store float 0.000000e+00, ptr %5, align 4
  ret void
}

; Function Attrs: mustprogress uwtable
define linkonce_odr hidden void @_ZN2cv7Scalar_IdEC2Ev(ptr noundef nonnull align 8 dereferenceable(32) %0) unnamed_addr #0 comdat align 2 {
  %2 = alloca ptr, align 8
  store ptr %0, ptr %2, align 8
  %3 = load ptr, ptr %2, align 8
  call void @_ZN2cv3VecIdLi4EEC2Ev(ptr noundef nonnull align 8 dereferenceable(32) %3)
  %4 = getelementptr inbounds %"class.cv::Matx", ptr %3, i32 0, i32 0
  %5 = getelementptr inbounds [4 x double], ptr %4, i64 0, i64 3
  store double 0.000000e+00, ptr %5, align 8
  %6 = getelementptr inbounds %"class.cv::Matx", ptr %3, i32 0, i32 0
  %7 = getelementptr inbounds [4 x double], ptr %6, i64 0, i64 2
  store double 0.000000e+00, ptr %7, align 8
  %8 = getelementptr inbounds %"class.cv::Matx", ptr %3, i32 0, i32 0
  %9 = getelementptr inbounds [4 x double], ptr %8, i64 0, i64 1
  store double 0.000000e+00, ptr %9, align 8
  %10 = getelementptr inbounds %"class.cv::Matx", ptr %3, i32 0, i32 0
  %11 = getelementptr inbounds [4 x double], ptr %10, i64 0, i64 0
  store double 0.000000e+00, ptr %11, align 8
  ret void
}

; Function Attrs: mustprogress nounwind uwtable
define linkonce_odr hidden void @_ZN2cv6Point_IfEC2Ev(ptr noundef nonnull align 4 dereferenceable(8) %0) unnamed_addr #1 comdat align 2 {
  %2 = alloca ptr, align 8
  store ptr %0, ptr %2, align 8
  %3 = load ptr, ptr %2, align 8
  %4 = getelementptr inbounds %"class.cv::Point_", ptr %3, i32 0, i32 0
  store float 0.000000e+00, ptr %4, align 4
  %5 = getelementptr inbounds %"class.cv::Point_", ptr %3, i32 0, i32 1
  store float 0.000000e+00, ptr %5, align 4
  ret void
}

; Function Attrs: mustprogress uwtable
define hidden void @_ZN16EllipticKeyPointC2ERKN2cv6Point_IfEERKNS0_7Scalar_IdEE(ptr noundef nonnull align 8 dereferenceable(56) %0, ptr noundef nonnull align 4 dereferenceable(8) %1, ptr noundef nonnull align 8 dereferenceable(32) %2) unnamed_addr #0 align 2 {
  %4 = alloca ptr, align 8
  %5 = alloca ptr, align 8
  %6 = alloca ptr, align 8
  %7 = alloca double, align 8
  %8 = alloca double, align 8
  %9 = alloca double, align 8
  %10 = alloca double, align 8
  %11 = alloca double, align 8
  %12 = alloca double, align 8
  store ptr %0, ptr %4, align 8
  store ptr %1, ptr %5, align 8
  store ptr %2, ptr %6, align 8
  %13 = load ptr, ptr %4, align 8
  %14 = getelementptr inbounds %class.EllipticKeyPoint, ptr %13, i32 0, i32 0
  call void @_ZN2cv6Point_IfEC2Ev(ptr noundef nonnull align 4 dereferenceable(8) %14)
  %15 = getelementptr inbounds %class.EllipticKeyPoint, ptr %13, i32 0, i32 1
  call void @_ZN2cv7Scalar_IdEC2Ev(ptr noundef nonnull align 8 dereferenceable(32) %15)
  %16 = getelementptr inbounds %class.EllipticKeyPoint, ptr %13, i32 0, i32 2
  call void @_ZN2cv5Size_IfEC2Ev(ptr noundef nonnull align 4 dereferenceable(8) %16)
  %17 = getelementptr inbounds %class.EllipticKeyPoint, ptr %13, i32 0, i32 3
  call void @_ZN2cv5Size_IfEC2Ev(ptr noundef nonnull align 4 dereferenceable(8) %17)
  %18 = load ptr, ptr %5, align 8
  %19 = getelementptr inbounds %class.EllipticKeyPoint, ptr %13, i32 0, i32 0
  call void @llvm.memcpy.p0.p0.i64(ptr align 8 %19, ptr align 4 %18, i64 8, i1 false)
  %20 = load ptr, ptr %6, align 8
  %21 = getelementptr inbounds %class.EllipticKeyPoint, ptr %13, i32 0, i32 1
  %22 = call noundef nonnull align 8 dereferenceable(32) ptr @_ZN2cv7Scalar_IdEaSERKS1_(ptr noundef nonnull align 8 dereferenceable(32) %21, ptr noundef nonnull align 8 dereferenceable(32) %20)
  %23 = getelementptr inbounds %class.EllipticKeyPoint, ptr %13, i32 0, i32 1
  %24 = call noundef nonnull align 8 dereferenceable(8) ptr @_ZN2cv3VecIdLi4EEixEi(ptr noundef nonnull align 8 dereferenceable(32) %23, i32 noundef 0)
  %25 = load double, ptr %24, align 8
  store double %25, ptr %7, align 8
  %26 = getelementptr inbounds %class.EllipticKeyPoint, ptr %13, i32 0, i32 1
  %27 = call noundef nonnull align 8 dereferenceable(8) ptr @_ZN2cv3VecIdLi4EEixEi(ptr noundef nonnull align 8 dereferenceable(32) %26, i32 noundef 1)
  %28 = load double, ptr %27, align 8
  store double %28, ptr %8, align 8
  %29 = getelementptr inbounds %class.EllipticKeyPoint, ptr %13, i32 0, i32 1
  %30 = call noundef nonnull align 8 dereferenceable(8) ptr @_ZN2cv3VecIdLi4EEixEi(ptr noundef nonnull align 8 dereferenceable(32) %29, i32 noundef 2)
  %31 = load double, ptr %30, align 8
  store double %31, ptr %9, align 8
  %32 = load double, ptr %7, align 8
  %33 = load double, ptr %9, align 8
  %34 = load double, ptr %8, align 8
  %35 = load double, ptr %8, align 8
  %36 = fmul double %34, %35
  %37 = fneg double %36
  %38 = call double @llvm.fmuladd.f64(double %32, double %33, double %37)
  store double %38, ptr %10, align 8
  %39 = load double, ptr %7, align 8
  %40 = load double, ptr %9, align 8
  %41 = fadd double %39, %40
  %42 = fneg double %41
  %43 = load double, ptr %10, align 8
  %44 = call noundef i32 @_ZL14solveQuadraticIdEiT_S0_S0_RS0_S1_(double noundef 1.000000e+00, double noundef %42, double noundef %43, ptr noundef nonnull align 8 dereferenceable(8) %11, ptr noundef nonnull align 8 dereferenceable(8) %12)
  %45 = load double, ptr %11, align 8
  %46 = call double @sqrt(double noundef %45) #16
  %47 = fdiv double 1.000000e+00, %46
  %48 = fptrunc double %47 to float
  %49 = getelementptr inbounds %class.EllipticKeyPoint, ptr %13, i32 0, i32 2
  %50 = getelementptr inbounds %"class.cv::Size_", ptr %49, i32 0, i32 0
  store float %48, ptr %50, align 8
  %51 = load double, ptr %12, align 8
  %52 = call double @sqrt(double noundef %51) #16
  %53 = fdiv double 1.000000e+00, %52
  %54 = fptrunc double %53 to float
  %55 = getelementptr inbounds %class.EllipticKeyPoint, ptr %13, i32 0, i32 2
  %56 = getelementptr inbounds %"class.cv::Size_", ptr %55, i32 0, i32 1
  store float %54, ptr %56, align 4
  %57 = getelementptr inbounds %class.EllipticKeyPoint, ptr %13, i32 0, i32 1
  %58 = call noundef nonnull align 8 dereferenceable(8) ptr @_ZN2cv3VecIdLi4EEixEi(ptr noundef nonnull align 8 dereferenceable(32) %57, i32 noundef 2)
  %59 = load double, ptr %58, align 8
  %60 = load double, ptr %10, align 8
  %61 = fdiv double %59, %60
  %62 = call double @sqrt(double noundef %61) #16
  %63 = fptrunc double %62 to float
  %64 = getelementptr inbounds %class.EllipticKeyPoint, ptr %13, i32 0, i32 3
  %65 = getelementptr inbounds %"class.cv::Size_", ptr %64, i32 0, i32 0
  store float %63, ptr %65, align 8
  %66 = getelementptr inbounds %class.EllipticKeyPoint, ptr %13, i32 0, i32 1
  %67 = call noundef nonnull align 8 dereferenceable(8) ptr @_ZN2cv3VecIdLi4EEixEi(ptr noundef nonnull align 8 dereferenceable(32) %66, i32 noundef 0)
  %68 = load double, ptr %67, align 8
  %69 = load double, ptr %10, align 8
  %70 = fdiv double %68, %69
  %71 = call double @sqrt(double noundef %70) #16
  %72 = fptrunc double %71 to float
  %73 = getelementptr inbounds %class.EllipticKeyPoint, ptr %13, i32 0, i32 3
  %74 = getelementptr inbounds %"class.cv::Size_", ptr %73, i32 0, i32 1
  store float %72, ptr %74, align 4
  ret void
}