; Function Attrs: mustprogress nofree nounwind willreturn memory(write, argmem: readwrite) uwtable
define hidden void @_ZN16EllipticKeyPointC2ERKN2cv6Point_IfEERKNS0_7Scalar_IdEE(ptr nocapture noundef nonnull align 8 dereferenceable(56) %0, ptr nocapture noundef nonnull readonly align 4 dereferenceable(8) %1, ptr nocapture noundef nonnull readonly align 8 dereferenceable(32) %2) unnamed_addr #1 align 2 {
  %4 = getelementptr inbounds i8, ptr %0, i64 8
  tail call void @llvm.memset.p0.i64(ptr noundef nonnull align 8 dereferenceable(56) %0, i8 0, i64 56, i1 false)
  %5 = load i64, ptr %1, align 4
  store i64 %5, ptr %0, align 8
  %6 = load double, ptr %2, align 8
  store double %6, ptr %4, align 8
  %7 = getelementptr inbounds i8, ptr %2, i64 8
  %8 = load double, ptr %7, align 8
  %9 = getelementptr inbounds i8, ptr %0, i64 16
  store double %8, ptr %9, align 8
  %10 = getelementptr inbounds i8, ptr %2, i64 16
  %11 = load double, ptr %10, align 8
  %12 = getelementptr inbounds i8, ptr %0, i64 24
  store double %11, ptr %12, align 8
  %13 = getelementptr inbounds i8, ptr %2, i64 24
  %14 = load double, ptr %13, align 8
  %15 = getelementptr inbounds i8, ptr %0, i64 32
  store double %14, ptr %15, align 8
  %16 = fneg double %8
  %17 = fmul double %8, %16
  %18 = tail call double @llvm.fmuladd.f64(double %6, double %11, double %17)
  %19 = fadd double %6, %11
  %20 = fmul double %18, -4.000000e+00
  %21 = tail call double @llvm.fmuladd.f64(double %19, double %19, double %20)
  %22 = fcmp olt double %21, 0.000000e+00
  br i1 %22, label %_ZL14solveQuadraticIdEiT_S0_S0_RS0_S1_.exit, label %23

23:                                               ; preds = %3
  %24 = fcmp ogt double %21, 0.000000e+00
  br i1 %24, label %25, label %39

25:                                               ; preds = %23
  %26 = tail call double @sqrt(double noundef %21) #21
  %27 = insertelement <2 x double> poison, double %19, i64 0
  %28 = insertelement <2 x double> poison, double %19, i64 0
  %29 = insertelement <2 x double> poison, double %26, i64 0
  %30 = insertelement <2 x double> poison, double %26, i64 0
  %31 = fsub <2 x double> %28, %30
  %32 = fadd <2 x double> %27, %29
  %33 = shufflevector <2 x double> %31, <2 x double> %32, <2 x i32> <i32 0, i32 2>
  %34 = fmul <2 x double> %33, <double 5.000000e-01, double 5.000000e-01>
  %35 = extractelement <2 x double> %34, i64 0
  %36 = extractelement <2 x double> %34, i64 1
  %37 = fcmp ogt double %35, %36
  br i1 %37, label %38, label %_ZL14solveQuadraticIdEiT_S0_S0_RS0_S1_.exit

38:                                               ; preds = %25
  br label %_ZL14solveQuadraticIdEiT_S0_S0_RS0_S1_.exit

39:                                               ; preds = %23
  %40 = fmul double %19, 5.000000e-01
  br label %_ZL14solveQuadraticIdEiT_S0_S0_RS0_S1_.exit

_ZL14solveQuadraticIdEiT_S0_S0_RS0_S1_.exit:      ; preds = %3, %25, %38, %39
  %.014 = phi double [ %36, %38 ], [ %35, %25 ], [ %40, %39 ], [ 0.000000e+00, %3 ]
  %.0 = phi double [ %35, %38 ], [ %36, %25 ], [ %40, %39 ], [ 0.000000e+00, %3 ]
  %41 = getelementptr inbounds i8, ptr %0, i64 52
  %42 = getelementptr inbounds i8, ptr %0, i64 48
  %43 = getelementptr inbounds i8, ptr %0, i64 44
  %44 = getelementptr inbounds i8, ptr %0, i64 40
  %45 = tail call double @sqrt(double noundef %.014) #21
  %46 = fdiv double 1.000000e+00, %45
  %47 = fptrunc double %46 to float
  store float %47, ptr %44, align 8
  %48 = tail call double @sqrt(double noundef %.0) #21
  %49 = fdiv double 1.000000e+00, %48
  %50 = fptrunc double %49 to float
  store float %50, ptr %43, align 4
  %51 = load double, ptr %12, align 8
  %52 = fdiv double %51, %18
  %53 = tail call double @sqrt(double noundef %52) #21
  %54 = fptrunc double %53 to float
  store float %54, ptr %42, align 8
  %55 = load double, ptr %4, align 8
  %56 = fdiv double %55, %18
  %57 = tail call double @sqrt(double noundef %56) #21
  %58 = fptrunc double %57 to float
  store float %58, ptr %41, align 4
  ret void
}